(lp0
(iinterface
Execution_param
p1
(dp2
S'RandomSeed'
p3
cnumpy.core.multiarray
_reconstruct
p4
(cnumpy
ndarray
p5
(I0
tp6
S'b'
p7
tp8
Rp9
(I1
(I1
I1
tp10
cnumpy
dtype
p11
(S'i8'
p12
I0
I1
tp13
Rp14
(I3
S'<'
p15
NNNI-1
I-1
I0
tp16
bI00
S'\xbfU\x00\x00\x00\x00\x00\x00'
p17
tp18
bsS'Nruns'
p19
I1
sS'TrError'
p20
g4
(g5
(I0
tp21
g7
tp22
Rp23
(I1
(I1
I1
tp24
g11
(S'f8'
p25
I0
I1
tp26
Rp27
(I3
S'<'
p28
NNNI-1
I-1
I0
tp29
bI00
S'q=\n\xd7\xa3p\xef?'
p30
tp31
bsS'CV'
p32
I1
sS'Date'
p33
S'Wed Jun 22 16:29:52 2016'
p34
sS'TstError'
p35
g4
(g5
(I0
tp36
g7
tp37
Rp38
(I1
(I1
I1
tp39
g27
I00
S'\x9d\xa1+\xe2\xfc8\xec?'
p40
tp41
bsS'ValError'
p42
g4
(g5
(I0
tp43
g7
tp44
Rp45
(I1
(I1
I1
tp46
g27
I00
S'\x9d\xa1+\xe2\xfc8\xec?'
p47
tp48
bsba(iGDBtraining
GDSNBoost_param
p49
(dp50
S'base_learner'
p51
(iGinterface
CGSLFN_param
p52
(dp53
S'nH'
p54
I5
sS'regularization'
p55
(iparamClasses
Regularization
p56
(dp57
S'Reg'
p58
S'L2'
p59
sS'param'
p60
(lp61
F5e-06
asbsS'initDistrib'
p62
(iparamClasses
Init_Distrib
p63
(dp64
S'weightInit'
p65
S'deepLearning'
p66
sg60
(lp67
S'DL1'
p68
aI1
asbsS'fg_name'
p69
S'linear'
p70
sS'errFunc'
p71
S'MSE'
p72
sS'fo_name'
p73
S'tanh'
p74
sS'fh_name'
p75
g74
sS'nG'
p76
I1
sS'stopCrit'
p77
(iparamClasses
Stop_Criterion
p78
(dp79
S'StopCrit'
p80
S'Nmax'
p81
sg60
(lp82
sbsS'trainingAlg'
p83
(iparamClasses
Training_Alg
p84
(dp85
S'trAlg'
p86
S'BP'
p87
sg60
(lp88
I100
aF0.01
aI1
aF0.0
asbsbsS'nL'
p89
I3
sS'Enphasis'
p90
S'ManuBoost'
p91
sS'gammas'
p92
g4
(g5
(I0
tp93
g7
tp94
Rp95
(I1
(I3
I1
tp96
g27
I00
S'S=\xca\xb1p\x90\xf7?\x1e`c74l\xf6?\xc1\x0eo\x94\x1a\x8f\xf6?'
p97
tp98
bsS'beta'
p99
F0.5
sS'Lmax'
p100
I3
sS'alpha'
p101
F0.1
sS'Inyection'
p102
S'WholeO'
p103
sS'Agregation'
p104
S'RealAdaBoost'
p105
sba.